; Function Attrs: mustprogress uwtable
define hidden void @_Z3Asyj(i32 noundef %0) local_unnamed_addr #3 {
  %2 = load ptr, ptr @_ZL8g_z3_log, align 8, !tbaa !3
  %3 = tail call noundef nonnull align 8 dereferenceable(8) ptr @_ZSt16__ostream_insertIcSt11char_traitsIcEERSt13basic_ostreamIT_T0_ES6_PKS3_l(ptr noundef nonnull align 8 dereferenceable(8) %2, ptr noundef nonnull @.str.13, i64 noundef 2)
  %4 = zext i32 %0 to i64
  %5 = tail call noundef nonnull align 8 dereferenceable(8) ptr @_ZNSo9_M_insertImEERSoT_(ptr noundef nonnull align 8 dereferenceable(8) %2, i64 noundef %4)
  %6 = load ptr, ptr %5, align 8, !tbaa !9
  %7 = getelementptr i8, ptr %6, i64 -24
  %8 = load i64, ptr %7, align 8
  %9 = getelementptr inbounds i8, ptr %5, i64 %8
  %10 = getelementptr inbounds nuw i8, ptr %9, i64 240
  %11 = load ptr, ptr %10, align 8, !tbaa !22
  %.not.i.i.i = icmp eq ptr %11, null
  br i1 %.not.i.i.i, label %12, label %_ZSt13__check_facetISt5ctypeIcEERKT_PS3_.exit.i.i

12:                                               ; preds = %1
  tail call void @_ZSt16__throw_bad_castv() #11
  unreachable

_ZSt13__check_facetISt5ctypeIcEERKT_PS3_.exit.i.i: ; preds = %1
  %13 = getelementptr inbounds nuw i8, ptr %11, i64 56
  %14 = load i8, ptr %13, align 8, !tbaa !29
  %.not.i1.i.i = icmp eq i8 %14, 0
  br i1 %.not.i1.i.i, label %18, label %15

15:                                               ; preds = %_ZSt13__check_facetISt5ctypeIcEERKT_PS3_.exit.i.i
  %16 = getelementptr inbounds nuw i8, ptr %11, i64 67
  %17 = load i8, ptr %16, align 1, !tbaa !8
  br label %_ZSt4endlIcSt11char_traitsIcEERSt13basic_ostreamIT_T0_ES6_.exit

18:                                               ; preds = %_ZSt13__check_facetISt5ctypeIcEERKT_PS3_.exit.i.i
  tail call void @_ZNKSt5ctypeIcE13_M_widen_initEv(ptr noundef nonnull align 8 dereferenceable(570) %11)
  %19 = load ptr, ptr %11, align 8, !tbaa !9
  %20 = getelementptr inbounds nuw i8, ptr %19, i64 48
  %21 = load ptr, ptr %20, align 8
  %22 = tail call noundef signext i8 %21(ptr noundef nonnull align 8 dereferenceable(570) %11, i8 noundef signext 10)
  br label %_ZSt4endlIcSt11char_traitsIcEERSt13basic_ostreamIT_T0_ES6_.exit

_ZSt4endlIcSt11char_traitsIcEERSt13basic_ostreamIT_T0_ES6_.exit: ; preds = %15, %18
  %.0.i.i.i = phi i8 [ %17, %15 ], [ %22, %18 ]
  %23 = tail call noundef nonnull align 8 dereferenceable(8) ptr @_ZNSo3putEc(ptr noundef nonnull align 8 dereferenceable(8) %5, i8 noundef signext %.0.i.i.i)
  %24 = tail call noundef nonnull align 8 dereferenceable(8) ptr @_ZNSo5flushEv(ptr noundef nonnull align 8 dereferenceable(8) %23)
  ret void
}